ccopy_reg
_reconstructor
p0
(cpickle-serialization-1
Person
p1
c__builtin__
object
p2
Ntp3
Rp4
(dp5
Vname
p6
VJames
p7
sVage
p8
L2L
sb.ccopy_reg
_reconstructor
p0
(cpickle-serialization-1
Person
p1
c__builtin__
object
p2
Ntp3
Rp4
(dp5
Vname
p6
VHellen
p7
sVage
p8
L15L
sb.(dp0
Vda
p1
L111L
sL2L
(lp2
L23L
aL1L
aL4L
asV23
p3
(dp4
L1L
L2L
sVd
p5
Vsad
p6
ss.